ccopy_reg
_reconstructor
p1
(cGameSettings
GameSettings
p2
c__builtin__
object
p3
NtRp4
(dp5
S'_GameSettings__screen_x'
p6
I800
sS'_GameSettings__screen_y'
p7
I600
sS'_GameSettings__musicVolume'
p8
I50
sS'_GameSettings__voiceVolume'
p9
I50
sS'_GameSettings__fxVolume'
p10
I50
sb.