(lp1
Vasdflkjadsf
p2
aVtrey
p3
aS'ADF'
p4
aS'HWH'
p5
aS'DAD'
p6
aS'EPU'
p7
aS'ACC'
p8
aS'XXW'
p9
aS'YWV'
p10
aS'B-X'
p11
aS'BY-'
p12
aS'Z--'
p13
aS'UVS'
p14
aS'XW-'
p15
aS'-YZ'
p16
aS'YXW'
p17
aS'YZW'
p18
aS'TMP'
p19
aS'XXT'
p20
aS'Z-Y'
p21
aS'W--'
p22
aS'VTT'
p23
aS'-Z-'
p24
a.